target datalayout = "e-m:e-p270:32:32-p271:32:32-p272:64:64-i64:64-i128:128-f80:128-n8:16:32:64-S128"
target triple = "x86_64-pc-linux-gnu"

@.str.14 = private unnamed_addr constant [26 x i8] c"../openssl/test/rpktest.c\00", align 1
@.str.15 = private unnamed_addr constant [28 x i8] c"Error parsing test options\0A\00", align 1
@.str.16 = private unnamed_addr constant [32 x i8] c"certsdir = test_get_argument(0)\00", align 1
@certsdir = internal global ptr null, align 8
@.str.17 = private unnamed_addr constant [13 x i8] c"rootcert.pem\00", align 1
@rootcert = internal global ptr null, align 8
@.str.18 = private unnamed_addr constant [15 x i8] c"servercert.pem\00", align 1
@cert = internal global ptr null, align 8
@.str.19 = private unnamed_addr constant [14 x i8] c"serverkey.pem\00", align 1
@privkey = internal global ptr null, align 8
@.str.20 = private unnamed_addr constant [22 x i8] c"server-ecdsa-cert.pem\00", align 1
@cert2 = internal global ptr null, align 8
@.str.21 = private unnamed_addr constant [21 x i8] c"server-ecdsa-key.pem\00", align 1
@privkey2 = internal global ptr null, align 8
@.str.22 = private unnamed_addr constant [22 x i8] c"server-ed448-cert.pem\00", align 1
@cert448 = internal global ptr null, align 8
@.str.23 = private unnamed_addr constant [21 x i8] c"server-ed448-key.pem\00", align 1
@privkey448 = internal global ptr null, align 8
@.str.24 = private unnamed_addr constant [24 x i8] c"server-ed25519-cert.pem\00", align 1
@cert25519 = internal global ptr null, align 8
@.str.25 = private unnamed_addr constant [23 x i8] c"server-ed25519-key.pem\00", align 1
@privkey25519 = internal global ptr null, align 8
@libctx = internal global ptr null, align 8
@.str.26 = private unnamed_addr constant [13 x i8] c"test_rpk_api\00", align 1
@.str.27 = private unnamed_addr constant [9 x i8] c"test_rpk\00", align 1

; Function Attrs: nounwind uwtable
define dso_local i32 @setup_tests() #0 {
  %1 = alloca i32, align 4
  %2 = call i32 @test_skip_common_options()
  %3 = icmp ne i32 %2, 0
  br i1 %3, label %5, label %4

4:                                                ; preds = %0
  call void (ptr, i32, ptr, ...) @test_error(ptr noundef @.str.14, i32 noundef 725, ptr noundef @.str.15)
  store i32 0, ptr %1, align 4
  br label %71

5:                                                ; preds = %0
  %6 = call ptr @test_get_argument(i64 noundef 0)
  store ptr %6, ptr @certsdir, align 8, !tbaa !4
  %7 = call i32 @test_ptr(ptr noundef @.str.14, i32 noundef 729, ptr noundef @.str.16, ptr noundef %6)
  %8 = icmp ne i32 %7, 0
  br i1 %8, label %10, label %9

9:                                                ; preds = %5
  store i32 0, ptr %1, align 4
  br label %71

10:                                               ; preds = %5
  %11 = load ptr, ptr @certsdir, align 8, !tbaa !4
  %12 = call ptr @test_mk_file_path(ptr noundef %11, ptr noundef @.str.17)
  store ptr %12, ptr @rootcert, align 8, !tbaa !4
  %13 = load ptr, ptr @rootcert, align 8, !tbaa !4
  %14 = icmp eq ptr %13, null
  br i1 %14, label %15, label %16

15:                                               ; preds = %10
  br label %70

16:                                               ; preds = %10
  %17 = load ptr, ptr @certsdir, align 8, !tbaa !4
  %18 = call ptr @test_mk_file_path(ptr noundef %17, ptr noundef @.str.18)
  store ptr %18, ptr @cert, align 8, !tbaa !4
  %19 = load ptr, ptr @cert, align 8, !tbaa !4
  %20 = icmp eq ptr %19, null
  br i1 %20, label %21, label %22

21:                                               ; preds = %16
  br label %70

22:                                               ; preds = %16
  %23 = load ptr, ptr @certsdir, align 8, !tbaa !4
  %24 = call ptr @test_mk_file_path(ptr noundef %23, ptr noundef @.str.19)
  store ptr %24, ptr @privkey, align 8, !tbaa !4
  %25 = load ptr, ptr @privkey, align 8, !tbaa !4
  %26 = icmp eq ptr %25, null
  br i1 %26, label %27, label %28

27:                                               ; preds = %22
  br label %70

28:                                               ; preds = %22
  %29 = load ptr, ptr @certsdir, align 8, !tbaa !4
  %30 = call ptr @test_mk_file_path(ptr noundef %29, ptr noundef @.str.20)
  store ptr %30, ptr @cert2, align 8, !tbaa !4
  %31 = load ptr, ptr @cert2, align 8, !tbaa !4
  %32 = icmp eq ptr %31, null
  br i1 %32, label %33, label %34

33:                                               ; preds = %28
  br label %70

34:                                               ; preds = %28
  %35 = load ptr, ptr @certsdir, align 8, !tbaa !4
  %36 = call ptr @test_mk_file_path(ptr noundef %35, ptr noundef @.str.21)
  store ptr %36, ptr @privkey2, align 8, !tbaa !4
  %37 = load ptr, ptr @privkey2, align 8, !tbaa !4
  %38 = icmp eq ptr %37, null
  br i1 %38, label %39, label %40

39:                                               ; preds = %34
  br label %70

40:                                               ; preds = %34
  %41 = load ptr, ptr @certsdir, align 8, !tbaa !4
  %42 = call ptr @test_mk_file_path(ptr noundef %41, ptr noundef @.str.22)
  store ptr %42, ptr @cert448, align 8, !tbaa !4
  %43 = load ptr, ptr @cert2, align 8, !tbaa !4
  %44 = icmp eq ptr %43, null
  br i1 %44, label %45, label %46

45:                                               ; preds = %40
  br label %70

46:                                               ; preds = %40
  %47 = load ptr, ptr @certsdir, align 8, !tbaa !4
  %48 = call ptr @test_mk_file_path(ptr noundef %47, ptr noundef @.str.23)
  store ptr %48, ptr @privkey448, align 8, !tbaa !4
  %49 = load ptr, ptr @privkey2, align 8, !tbaa !4
  %50 = icmp eq ptr %49, null
  br i1 %50, label %51, label %52

51:                                               ; preds = %46
  br label %70

52:                                               ; preds = %46
  %53 = load ptr, ptr @certsdir, align 8, !tbaa !4
  %54 = call ptr @test_mk_file_path(ptr noundef %53, ptr noundef @.str.24)
  store ptr %54, ptr @cert25519, align 8, !tbaa !4
  %55 = load ptr, ptr @cert2, align 8, !tbaa !4
  %56 = icmp eq ptr %55, null
  br i1 %56, label %57, label %58

57:                                               ; preds = %52
  br label %70

58:                                               ; preds = %52
  %59 = load ptr, ptr @certsdir, align 8, !tbaa !4
  %60 = call ptr @test_mk_file_path(ptr noundef %59, ptr noundef @.str.25)
  store ptr %60, ptr @privkey25519, align 8, !tbaa !4
  %61 = load ptr, ptr @privkey2, align 8, !tbaa !4
  %62 = icmp eq ptr %61, null
  br i1 %62, label %63, label %64

63:                                               ; preds = %58
  br label %70

64:                                               ; preds = %58
  %65 = call ptr @OSSL_LIB_CTX_new()
  store ptr %65, ptr @libctx, align 8, !tbaa !9
  %66 = load ptr, ptr @libctx, align 8, !tbaa !9
  %67 = icmp eq ptr %66, null
  br i1 %67, label %68, label %69

68:                                               ; preds = %64
  br label %70

69:                                               ; preds = %64
  call void @add_test(ptr noundef @.str.26, ptr noundef @test_rpk_api)
  call void @add_all_tests(ptr noundef @.str.27, ptr noundef @test_rpk, i32 noundef 2304, i32 noundef 1)
  store i32 1, ptr %1, align 4
  br label %71

70:                                               ; preds = %68, %63, %57, %51, %45, %39, %33, %27, %21, %15
  store i32 0, ptr %1, align 4
  br label %71

71:                                               ; preds = %70, %69, %9, %4
  %72 = load i32, ptr %1, align 4
  ret i32 %72
}