; Function Attrs: nounwind uwtable
define dso_local range(i32 0, 2) i32 @setup_tests() local_unnamed_addr #1 {
  %1 = tail call i32 @test_skip_common_options() #5
  %.not = icmp eq i32 %1, 0
  br i1 %.not, label %2, label %3

2:                                                ; preds = %0
  tail call void (ptr, i32, ptr, ...) @test_error(ptr noundef nonnull @.str.14, i32 noundef 725, ptr noundef nonnull @.str.15) #5
  br label %50

3:                                                ; preds = %0
  %4 = tail call ptr @test_get_argument(i64 noundef 0) #5
  store ptr %4, ptr @certsdir, align 8, !tbaa !4
  %5 = tail call i32 @test_ptr(ptr noundef nonnull @.str.14, i32 noundef 729, ptr noundef nonnull @.str.16, ptr noundef %4) #5
  %.not1 = icmp eq i32 %5, 0
  br i1 %.not1, label %50, label %6

6:                                                ; preds = %3
  %7 = load ptr, ptr @certsdir, align 8, !tbaa !4
  %8 = tail call ptr @test_mk_file_path(ptr noundef %7, ptr noundef nonnull @.str.17) #5
  store ptr %8, ptr @rootcert, align 8, !tbaa !4
  %9 = icmp eq ptr %8, null
  br i1 %9, label %50, label %10

10:                                               ; preds = %6
  %11 = load ptr, ptr @certsdir, align 8, !tbaa !4
  %12 = tail call ptr @test_mk_file_path(ptr noundef %11, ptr noundef nonnull @.str.18) #5
  store ptr %12, ptr @cert, align 8, !tbaa !4
  %13 = icmp eq ptr %12, null
  br i1 %13, label %50, label %14

14:                                               ; preds = %10
  %15 = load ptr, ptr @certsdir, align 8, !tbaa !4
  %16 = tail call ptr @test_mk_file_path(ptr noundef %15, ptr noundef nonnull @.str.19) #5
  store ptr %16, ptr @privkey, align 8, !tbaa !4
  %17 = icmp eq ptr %16, null
  br i1 %17, label %50, label %18

18:                                               ; preds = %14
  %19 = load ptr, ptr @certsdir, align 8, !tbaa !4
  %20 = tail call ptr @test_mk_file_path(ptr noundef %19, ptr noundef nonnull @.str.20) #5
  store ptr %20, ptr @cert2, align 8, !tbaa !4
  %21 = icmp eq ptr %20, null
  br i1 %21, label %50, label %22

22:                                               ; preds = %18
  %23 = load ptr, ptr @certsdir, align 8, !tbaa !4
  %24 = tail call ptr @test_mk_file_path(ptr noundef %23, ptr noundef nonnull @.str.21) #5
  store ptr %24, ptr @privkey2, align 8, !tbaa !4
  %25 = icmp eq ptr %24, null
  br i1 %25, label %50, label %26

26:                                               ; preds = %22
  %27 = load ptr, ptr @certsdir, align 8, !tbaa !4
  %28 = tail call ptr @test_mk_file_path(ptr noundef %27, ptr noundef nonnull @.str.22) #5
  store ptr %28, ptr @cert448, align 8, !tbaa !4
  %29 = load ptr, ptr @cert2, align 8, !tbaa !4
  %30 = icmp eq ptr %29, null
  br i1 %30, label %50, label %31

31:                                               ; preds = %26
  %32 = load ptr, ptr @certsdir, align 8, !tbaa !4
  %33 = tail call ptr @test_mk_file_path(ptr noundef %32, ptr noundef nonnull @.str.23) #5
  store ptr %33, ptr @privkey448, align 8, !tbaa !4
  %34 = load ptr, ptr @privkey2, align 8, !tbaa !4
  %35 = icmp eq ptr %34, null
  br i1 %35, label %50, label %36

36:                                               ; preds = %31
  %37 = load ptr, ptr @certsdir, align 8, !tbaa !4
  %38 = tail call ptr @test_mk_file_path(ptr noundef %37, ptr noundef nonnull @.str.24) #5
  store ptr %38, ptr @cert25519, align 8, !tbaa !4
  %39 = load ptr, ptr @cert2, align 8, !tbaa !4
  %40 = icmp eq ptr %39, null
  br i1 %40, label %50, label %41

41:                                               ; preds = %36
  %42 = load ptr, ptr @certsdir, align 8, !tbaa !4
  %43 = tail call ptr @test_mk_file_path(ptr noundef %42, ptr noundef nonnull @.str.25) #5
  store ptr %43, ptr @privkey25519, align 8, !tbaa !4
  %44 = load ptr, ptr @privkey2, align 8, !tbaa !4
  %45 = icmp eq ptr %44, null
  br i1 %45, label %50, label %46

46:                                               ; preds = %41
  %47 = tail call ptr @OSSL_LIB_CTX_new() #5
  store ptr %47, ptr @libctx, align 8, !tbaa !9
  %48 = icmp eq ptr %47, null
  br i1 %48, label %50, label %49

49:                                               ; preds = %46
  tail call void @add_test(ptr noundef nonnull @.str.26, ptr noundef nonnull @test_rpk_api) #5
  tail call void @add_all_tests(ptr noundef nonnull @.str.27, ptr noundef nonnull @test_rpk, i32 noundef 2304, i32 noundef 1) #5
  br label %50

50:                                               ; preds = %6, %10, %14, %18, %22, %26, %31, %36, %41, %46, %3, %49, %2
  %.0 = phi i32 [ 1, %49 ], [ 0, %2 ], [ 0, %3 ], [ 0, %46 ], [ 0, %41 ], [ 0, %36 ], [ 0, %31 ], [ 0, %26 ], [ 0, %22 ], [ 0, %18 ], [ 0, %14 ], [ 0, %10 ], [ 0, %6 ]
  ret i32 %.0
}